target datalayout = "e-m:e-p270:32:32-p271:32:32-p272:64:64-i64:64-i128:128-f80:128-n8:16:32:64-S128"
target triple = "x86_64-pc-linux-gnu"

%struct.ggml_backend_i = type { ptr, ptr, ptr, ptr, ptr, ptr, ptr, ptr, ptr, ptr, ptr, ptr, ptr }
%struct.ggml_backend_cpu_context = type { i32, ptr, ptr, i64, ptr, ptr }
%struct.ggml_backend = type { ptr, %struct.ggml_backend_i, ptr, ptr }

@_ZZL21ggml_backend_cpu_guidvE4guid = internal global [16 x i8] c"\AAg\C7C\96\E6\A3\8A\E3\AF\EA\926\BC\FC\89", align 16
@.str.2 = private unnamed_addr constant [128 x i8] c"generated/home/dtcxzyw/WorkSpace/Projects/compilers/llvm-opt-benchmark/bench/llama.cpp/llama.cpp/ggml/src/ggml-cpu/ggml-cpu.cpp\00", align 1
@.str.3 = private unnamed_addr constant [23 x i8] c"GGML_ASSERT(%s) failed\00", align 1
@.str.4 = private unnamed_addr constant [33 x i8] c"ggml_backend_is_cpu(backend_cpu)\00", align 1

; Function Attrs: mustprogress nounwind uwtable
define internal noundef ptr @_ZL21ggml_backend_cpu_guidv() #4 {
  ret ptr @_ZZL21ggml_backend_cpu_guidvE4guid
}

; Function Attrs: mustprogress uwtable
define zeroext i1 @ggml_backend_is_cpu(ptr noundef %0) #0 {
  %2 = alloca ptr, align 8
  store ptr %0, ptr %2, align 8, !tbaa !61
  %3 = load ptr, ptr %2, align 8, !tbaa !61
  %4 = icmp ne ptr %3, null
  br i1 %4, label %5, label %11

5:                                                ; preds = %1
  %6 = load ptr, ptr %2, align 8, !tbaa !61
  %7 = getelementptr inbounds nuw %struct.ggml_backend, ptr %6, i32 0, i32 0
  %8 = load ptr, ptr %7, align 8, !tbaa !54
  %9 = call noundef ptr @_ZL21ggml_backend_cpu_guidv()
  %10 = call zeroext i1 @ggml_guid_matches(ptr noundef %8, ptr noundef %9)
  br label %11

11:                                               ; preds = %5, %1
  %12 = phi i1 [ false, %1 ], [ %10, %5 ]
  ret i1 %12
}

; Function Attrs: mustprogress uwtable
define void @ggml_backend_cpu_set_abort_callback(ptr noundef %0, ptr noundef %1, ptr noundef %2) #0 {
  %4 = alloca ptr, align 8
  %5 = alloca ptr, align 8
  %6 = alloca ptr, align 8
  %7 = alloca ptr, align 8
  store ptr %0, ptr %4, align 8, !tbaa !61
  store ptr %1, ptr %5, align 8, !tbaa !5
  store ptr %2, ptr %6, align 8, !tbaa !5
  %8 = load ptr, ptr %4, align 8, !tbaa !61
  %9 = call zeroext i1 @ggml_backend_is_cpu(ptr noundef %8)
  br i1 %9, label %11, label %10

10:                                               ; preds = %3
  call void (ptr, i32, ptr, ...) @ggml_abort(ptr noundef @.str.2, i32 noundef 247, ptr noundef @.str.3, ptr noundef @.str.4) #16
  unreachable

11:                                               ; preds = %3
  call void @llvm.lifetime.start.p0(i64 8, ptr %7) #1
  %12 = load ptr, ptr %4, align 8, !tbaa !61
  %13 = getelementptr inbounds nuw %struct.ggml_backend, ptr %12, i32 0, i32 3
  %14 = load ptr, ptr %13, align 8, !tbaa !60
  store ptr %14, ptr %7, align 8, !tbaa !43
  %15 = load ptr, ptr %5, align 8, !tbaa !5
  %16 = load ptr, ptr %7, align 8, !tbaa !43
  %17 = getelementptr inbounds nuw %struct.ggml_backend_cpu_context, ptr %16, i32 0, i32 4
  store ptr %15, ptr %17, align 8, !tbaa !52
  %18 = load ptr, ptr %6, align 8, !tbaa !5
  %19 = load ptr, ptr %7, align 8, !tbaa !43
  %20 = getelementptr inbounds nuw %struct.ggml_backend_cpu_context, ptr %19, i32 0, i32 5
  store ptr %18, ptr %20, align 8, !tbaa !53
  call void @llvm.lifetime.end.p0(i64 8, ptr %7) #1
  ret void
}