; Function Attrs: mustprogress uwtable
define void @ggml_backend_cpu_set_abort_callback(ptr noundef readonly %0, ptr noundef %1, ptr noundef %2) #0 {
  %.not.i = icmp eq ptr %0, null
  br i1 %.not.i, label %ggml_backend_is_cpu.exit.thread, label %ggml_backend_is_cpu.exit

ggml_backend_is_cpu.exit:                         ; preds = %3
  %4 = load ptr, ptr %0, align 8, !tbaa !22
  %5 = tail call zeroext i1 @ggml_guid_matches(ptr noundef %4, ptr noundef nonnull @_ZZL21ggml_backend_cpu_guidvE4guid)
  br i1 %5, label %6, label %ggml_backend_is_cpu.exit.thread

ggml_backend_is_cpu.exit.thread:                  ; preds = %3, %ggml_backend_is_cpu.exit
  tail call void (ptr, i32, ptr, ...) @ggml_abort(ptr noundef nonnull @.str.2, i32 noundef 247, ptr noundef nonnull @.str.3, ptr noundef nonnull @.str.4) #26
  unreachable

6:                                                ; preds = %ggml_backend_is_cpu.exit
  %7 = getelementptr inbounds nuw i8, ptr %0, i64 120
  %8 = load ptr, ptr %7, align 8, !tbaa !29
  %9 = getelementptr inbounds nuw i8, ptr %8, i64 32
  store ptr %1, ptr %9, align 8, !tbaa !50
  %10 = getelementptr inbounds nuw i8, ptr %8, i64 40
  store ptr %2, ptr %10, align 8, !tbaa !52
  ret void
}